(dp1
S'en_name'
p2
Ven
p3
sS'num_completed'
p4
I910
sS'name'
p5
g3
sS'plural_names'
p6
(lp7
S'singular'
p8
aS'plural'
p9
asS'source_trans'
p10
(dp11
sS'_is_enabled'
p12
I00
sS'author'
p13
c__builtin__
set
p14
((lp15
S'xolar'
p16
atRp17
sS'enabled'
p18
(dp19
sS'num_total'
p20
I910
sS'nplurals'
p21
I2
s.